; ModuleID = '28/546.c'
source_filename = "28/546.c"
target datalayout = "e-m:e-p270:32:32-p271:32:32-p272:64:64-i64:64-f80:128-n8:16:32:64-S128"
target triple = "x86_64-pc-linux-gnu"

@.str = private unnamed_addr constant [4 x i8] c"%d,\00", align 1
@.str.1 = private unnamed_addr constant [3 x i8] c"%d\00", align 1

; Function Attrs: noinline nounwind uwtable
define dso_local i32 @main() #0 {
  %1 = alloca i32, align 4
  %2 = alloca [9000 x i8], align 16
  %3 = alloca [300 x [30 x i8]], align 16
  %4 = alloca [30 x i8], align 16
  %5 = alloca i32, align 4
  %6 = alloca i32, align 4
  %7 = alloca i32, align 4
  %8 = alloca i32, align 4
  %9 = alloca i32, align 4
  %10 = alloca i32, align 4
  store i32 0, i32* %1, align 4
  %11 = bitcast [30 x i8]* %4 to i8*
  call void @llvm.memset.p0i8.i64(i8* align 16 %11, i8 0, i64 30, i1 false)
  store i32 0, i32* %5, align 4
  store i32 0, i32* %6, align 4
  store i32 0, i32* %10, align 4
  %12 = getelementptr inbounds [9000 x i8], [9000 x i8]* %2, i64 0, i64 0
  %13 = call i32 (i8*, ...) bitcast (i32 (...)* @gets to i32 (i8*, ...)*)(i8* %12)
  %14 = getelementptr inbounds [9000 x i8], [9000 x i8]* %2, i64 0, i64 0
  %15 = call i64 @strlen(i8* %14) #5
  %16 = trunc i64 %15 to i32
  store i32 %16, i32* %8, align 4
  store i32 0, i32* %7, align 4
  br label %17

17:                                               ; preds = %96, %0
  %18 = load i32, i32* %7, align 4
  %19 = load i32, i32* %8, align 4
  %20 = icmp slt i32 %18, %19
  br i1 %20, label %21, label %99

21:                                               ; preds = %17
  %22 = load i32, i32* %7, align 4
  %23 = sext i32 %22 to i64
  %24 = getelementptr inbounds [9000 x i8], [9000 x i8]* %2, i64 0, i64 %23
  %25 = load i8, i8* %24, align 1
  %26 = sext i8 %25 to i32
  %27 = icmp ne i32 %26, 32
  br i1 %27, label %28, label %48

28:                                               ; preds = %21
  %29 = load i32, i32* %7, align 4
  %30 = sext i32 %29 to i64
  %31 = getelementptr inbounds [9000 x i8], [9000 x i8]* %2, i64 0, i64 %30
  %32 = load i8, i8* %31, align 1
  %33 = load i32, i32* %5, align 4
  %34 = sext i32 %33 to i64
  %35 = getelementptr inbounds [30 x i8], [30 x i8]* %4, i64 0, i64 %34
  store i8 %32, i8* %35, align 1
  %36 = load i32, i32* %7, align 4
  %37 = sext i32 %36 to i64
  %38 = getelementptr inbounds [9000 x i8], [9000 x i8]* %2, i64 0, i64 %37
  %39 = load i8, i8* %38, align 1
  %40 = load i32, i32* %6, align 4
  %41 = sext i32 %40 to i64
  %42 = getelementptr inbounds [300 x [30 x i8]], [300 x [30 x i8]]* %3, i64 0, i64 %41
  %43 = load i32, i32* %5, align 4
  %44 = sext i32 %43 to i64
  %45 = getelementptr inbounds [30 x i8], [30 x i8]* %42, i64 0, i64 %44
  store i8 %39, i8* %45, align 1
  %46 = load i32, i32* %5, align 4
  %47 = add nsw i32 %46, 1
  store i32 %47, i32* %5, align 4
  store i32 1, i32* %10, align 4
  br label %72

48:                                               ; preds = %21
  %49 = load i32, i32* %10, align 4
  %50 = icmp eq i32 %49, 1
  br i1 %50, label %51, label %60

51:                                               ; preds = %48
  %52 = load i32, i32* %6, align 4
  %53 = sext i32 %52 to i64
  %54 = getelementptr inbounds [300 x [30 x i8]], [300 x [30 x i8]]* %3, i64 0, i64 %53
  %55 = getelementptr inbounds [30 x i8], [30 x i8]* %54, i64 0, i64 0
  %56 = getelementptr inbounds [30 x i8], [30 x i8]* %4, i64 0, i64 0
  %57 = call i8* @strcpy(i8* %55, i8* %56) #6
  store i32 0, i32* %5, align 4
  %58 = load i32, i32* %6, align 4
  %59 = add nsw i32 %58, 1
  store i32 %59, i32* %6, align 4
  br label %60

60:                                               ; preds = %51, %48
  store i32 0, i32* %9, align 4
  br label %61

61:                                               ; preds = %68, %60
  %62 = load i32, i32* %9, align 4
  %63 = icmp slt i32 %62, 30
  br i1 %63, label %64, label %71

64:                                               ; preds = %61
  %65 = load i32, i32* %9, align 4
  %66 = sext i32 %65 to i64
  %67 = getelementptr inbounds [30 x i8], [30 x i8]* %4, i64 0, i64 %66
  store i8 0, i8* %67, align 1
  br label %68

68:                                               ; preds = %64
  %69 = load i32, i32* %9, align 4
  %70 = add nsw i32 %69, 1
  store i32 %70, i32* %9, align 4
  br label %61

71:                                               ; preds = %61
  store i32 0, i32* %10, align 4
  br label %72

72:                                               ; preds = %71, %28
  %73 = load i32, i32* %7, align 4
  %74 = load i32, i32* %8, align 4
  %75 = sub nsw i32 %74, 1
  %76 = icmp eq i32 %73, %75
  br i1 %76, label %77, label %95

77:                                               ; preds = %72
  %78 = load i32, i32* %6, align 4
  %79 = sext i32 %78 to i64
  %80 = getelementptr inbounds [300 x [30 x i8]], [300 x [30 x i8]]* %3, i64 0, i64 %79
  %81 = getelementptr inbounds [30 x i8], [30 x i8]* %80, i64 0, i64 0
  %82 = getelementptr inbounds [30 x i8], [30 x i8]* %4, i64 0, i64 0
  %83 = call i8* @strcpy(i8* %81, i8* %82) #6
  store i32 0, i32* %9, align 4
  br label %84

84:                                               ; preds = %91, %77
  %85 = load i32, i32* %9, align 4
  %86 = icmp slt i32 %85, 30
  br i1 %86, label %87, label %94

87:                                               ; preds = %84
  %88 = load i32, i32* %9, align 4
  %89 = sext i32 %88 to i64
  %90 = getelementptr inbounds [30 x i8], [30 x i8]* %4, i64 0, i64 %89
  store i8 0, i8* %90, align 1
  br label %91

91:                                               ; preds = %87
  %92 = load i32, i32* %9, align 4
  %93 = add nsw i32 %92, 1
  store i32 %93, i32* %9, align 4
  br label %84

94:                                               ; preds = %84
  br label %95

95:                                               ; preds = %94, %72
  br label %96

96:                                               ; preds = %95
  %97 = load i32, i32* %7, align 4
  %98 = add nsw i32 %97, 1
  store i32 %98, i32* %7, align 4
  br label %17

99:                                               ; preds = %17
  store i32 0, i32* %7, align 4
  br label %100

100:                                              ; preds = %111, %99
  %101 = load i32, i32* %7, align 4
  %102 = load i32, i32* %6, align 4
  %103 = icmp slt i32 %101, %102
  br i1 %103, label %104, label %114

104:                                              ; preds = %100
  %105 = load i32, i32* %7, align 4
  %106 = sext i32 %105 to i64
  %107 = getelementptr inbounds [300 x [30 x i8]], [300 x [30 x i8]]* %3, i64 0, i64 %106
  %108 = getelementptr inbounds [30 x i8], [30 x i8]* %107, i64 0, i64 0
  %109 = call i64 @strlen(i8* %108) #5
  %110 = call i32 (i8*, ...) @printf(i8* getelementptr inbounds ([4 x i8], [4 x i8]* @.str, i64 0, i64 0), i64 %109)
  br label %111

111:                                              ; preds = %104
  %112 = load i32, i32* %7, align 4
  %113 = add nsw i32 %112, 1
  store i32 %113, i32* %7, align 4
  br label %100

114:                                              ; preds = %100
  %115 = load i32, i32* %6, align 4
  %116 = sext i32 %115 to i64
  %117 = getelementptr inbounds [300 x [30 x i8]], [300 x [30 x i8]]* %3, i64 0, i64 %116
  %118 = getelementptr inbounds [30 x i8], [30 x i8]* %117, i64 0, i64 0
  %119 = call i64 @strlen(i8* %118) #5
  %120 = call i32 (i8*, ...) @printf(i8* getelementptr inbounds ([3 x i8], [3 x i8]* @.str.1, i64 0, i64 0), i64 %119)
  ret i32 0
}

; Function Attrs: argmemonly nounwind willreturn
declare void @llvm.memset.p0i8.i64(i8* nocapture writeonly, i8, i64, i1 immarg) #1

declare dso_local i32 @gets(...) #2

; Function Attrs: nounwind readonly
declare dso_local i64 @strlen(i8*) #3

; Function Attrs: nounwind
declare dso_local i8* @strcpy(i8*, i8*) #4

declare dso_local i32 @printf(i8*, ...) #2


!llvm.module.flags = !{!0}
!llvm.ident = !{!1}

!0 = !{i32 1, !"wchar_size", i32 4}
!1 = !{!"clang version 10.0.0-4ubuntu1 "}
